; ModuleID = '9/1330.c'
source_filename = "9/1330.c"
target datalayout = "e-m:e-p270:32:32-p271:32:32-p272:64:64-i64:64-f80:128-n8:16:32:64-S128"
target triple = "x86_64-pc-linux-gnu"

%struct.patient = type { [11 x i8], i32 }

@.str = private unnamed_addr constant [3 x i8] c"%d\00", align 1
@.str.1 = private unnamed_addr constant [6 x i8] c"%s %d\00", align 1
@pa = common dso_local global [100 x %struct.patient] zeroinitializer, align 16
@.str.2 = private unnamed_addr constant [4 x i8] c"%s\0A\00", align 1

; Function Attrs: noinline nounwind uwtable
define dso_local i32 @main(i32 %0, i8** %1) #0 {
  %3 = alloca i32, align 4
  %4 = alloca i32, align 4
  %5 = alloca i8**, align 8
  %6 = alloca i32, align 4
  %7 = alloca i32, align 4
  %8 = alloca [100 x %struct.patient], align 16
  %9 = alloca i32, align 4
  %10 = alloca i32, align 4
  %11 = alloca i32, align 4
  %12 = alloca i32, align 4
  %13 = alloca [11 x i8], align 1
  store i32 0, i32* %3, align 4
  store i32 %0, i32* %4, align 4
  store i8** %1, i8*** %5, align 8
  %14 = call i32 (i8*, ...) @__isoc99_scanf(i8* getelementptr inbounds ([3 x i8], [3 x i8]* @.str, i64 0, i64 0), i32* %6)
  store i32 0, i32* %7, align 4
  br label %15

15:                                               ; preds = %30, %2
  %16 = load i32, i32* %7, align 4
  %17 = load i32, i32* %6, align 4
  %18 = icmp slt i32 %16, %17
  br i1 %18, label %19, label %33

19:                                               ; preds = %15
  %20 = load i32, i32* %7, align 4
  %21 = sext i32 %20 to i64
  %22 = getelementptr inbounds [100 x %struct.patient], [100 x %struct.patient]* @pa, i64 0, i64 %21
  %23 = getelementptr inbounds %struct.patient, %struct.patient* %22, i32 0, i32 0
  %24 = getelementptr inbounds [11 x i8], [11 x i8]* %23, i64 0, i64 0
  %25 = load i32, i32* %7, align 4
  %26 = sext i32 %25 to i64
  %27 = getelementptr inbounds [100 x %struct.patient], [100 x %struct.patient]* @pa, i64 0, i64 %26
  %28 = getelementptr inbounds %struct.patient, %struct.patient* %27, i32 0, i32 1
  %29 = call i32 (i8*, ...) @__isoc99_scanf(i8* getelementptr inbounds ([6 x i8], [6 x i8]* @.str.1, i64 0, i64 0), i8* %24, i32* %28)
  br label %30

30:                                               ; preds = %19
  %31 = load i32, i32* %7, align 4
  %32 = add nsw i32 %31, 1
  store i32 %32, i32* %7, align 4
  br label %15

33:                                               ; preds = %15
  store i32 0, i32* %9, align 4
  store i32 0, i32* %7, align 4
  br label %34

34:                                               ; preds = %73, %33
  %35 = load i32, i32* %7, align 4
  %36 = load i32, i32* %6, align 4
  %37 = icmp slt i32 %35, %36
  br i1 %37, label %38, label %76

38:                                               ; preds = %34
  %39 = load i32, i32* %7, align 4
  %40 = sext i32 %39 to i64
  %41 = getelementptr inbounds [100 x %struct.patient], [100 x %struct.patient]* @pa, i64 0, i64 %40
  %42 = getelementptr inbounds %struct.patient, %struct.patient* %41, i32 0, i32 1
  %43 = load i32, i32* %42, align 4
  %44 = icmp sge i32 %43, 60
  br i1 %44, label %45, label %72

45:                                               ; preds = %38
  %46 = load i32, i32* %9, align 4
  %47 = sext i32 %46 to i64
  %48 = getelementptr inbounds [100 x %struct.patient], [100 x %struct.patient]* %8, i64 0, i64 %47
  %49 = getelementptr inbounds %struct.patient, %struct.patient* %48, i32 0, i32 0
  %50 = getelementptr inbounds [11 x i8], [11 x i8]* %49, i64 0, i64 0
  %51 = load i32, i32* %7, align 4
  %52 = sext i32 %51 to i64
  %53 = getelementptr inbounds [100 x %struct.patient], [100 x %struct.patient]* @pa, i64 0, i64 %52
  %54 = getelementptr inbounds %struct.patient, %struct.patient* %53, i32 0, i32 0
  %55 = getelementptr inbounds [11 x i8], [11 x i8]* %54, i64 0, i64 0
  %56 = call i8* @strcpy(i8* %50, i8* %55) #3
  %57 = load i32, i32* %7, align 4
  %58 = sext i32 %57 to i64
  %59 = getelementptr inbounds [100 x %struct.patient], [100 x %struct.patient]* @pa, i64 0, i64 %58
  %60 = getelementptr inbounds %struct.patient, %struct.patient* %59, i32 0, i32 1
  %61 = load i32, i32* %60, align 4
  %62 = load i32, i32* %9, align 4
  %63 = sext i32 %62 to i64
  %64 = getelementptr inbounds [100 x %struct.patient], [100 x %struct.patient]* %8, i64 0, i64 %63
  %65 = getelementptr inbounds %struct.patient, %struct.patient* %64, i32 0, i32 1
  store i32 %61, i32* %65, align 4
  %66 = load i32, i32* %9, align 4
  %67 = add nsw i32 %66, 1
  store i32 %67, i32* %9, align 4
  %68 = load i32, i32* %7, align 4
  %69 = sext i32 %68 to i64
  %70 = getelementptr inbounds [100 x %struct.patient], [100 x %struct.patient]* @pa, i64 0, i64 %69
  %71 = getelementptr inbounds %struct.patient, %struct.patient* %70, i32 0, i32 1
  store i32 0, i32* %71, align 4
  br label %72

72:                                               ; preds = %45, %38
  br label %73

73:                                               ; preds = %72
  %74 = load i32, i32* %7, align 4
  %75 = add nsw i32 %74, 1
  store i32 %75, i32* %7, align 4
  br label %34

76:                                               ; preds = %34
  store i32 1, i32* %10, align 4
  br label %77

77:                                               ; preds = %155, %76
  %78 = load i32, i32* %10, align 4
  %79 = load i32, i32* %9, align 4
  %80 = icmp slt i32 %78, %79
  br i1 %80, label %81, label %158

81:                                               ; preds = %77
  store i32 0, i32* %11, align 4
  br label %82

82:                                               ; preds = %151, %81
  %83 = load i32, i32* %11, align 4
  %84 = load i32, i32* %9, align 4
  %85 = load i32, i32* %10, align 4
  %86 = sub nsw i32 %84, %85
  %87 = icmp slt i32 %83, %86
  br i1 %87, label %88, label %154

88:                                               ; preds = %82
  %89 = load i32, i32* %11, align 4
  %90 = sext i32 %89 to i64
  %91 = getelementptr inbounds [100 x %struct.patient], [100 x %struct.patient]* %8, i64 0, i64 %90
  %92 = getelementptr inbounds %struct.patient, %struct.patient* %91, i32 0, i32 1
  %93 = load i32, i32* %92, align 4
  %94 = load i32, i32* %11, align 4
  %95 = add nsw i32 %94, 1
  %96 = sext i32 %95 to i64
  %97 = getelementptr inbounds [100 x %struct.patient], [100 x %struct.patient]* %8, i64 0, i64 %96
  %98 = getelementptr inbounds %struct.patient, %struct.patient* %97, i32 0, i32 1
  %99 = load i32, i32* %98, align 4
  %100 = icmp slt i32 %93, %99
  br i1 %100, label %101, label %150

101:                                              ; preds = %88
  %102 = load i32, i32* %11, align 4
  %103 = add nsw i32 %102, 1
  %104 = sext i32 %103 to i64
  %105 = getelementptr inbounds [100 x %struct.patient], [100 x %struct.patient]* %8, i64 0, i64 %104
  %106 = getelementptr inbounds %struct.patient, %struct.patient* %105, i32 0, i32 1
  %107 = load i32, i32* %106, align 4
  store i32 %107, i32* %12, align 4
  %108 = load i32, i32* %11, align 4
  %109 = sext i32 %108 to i64
  %110 = getelementptr inbounds [100 x %struct.patient], [100 x %struct.patient]* %8, i64 0, i64 %109
  %111 = getelementptr inbounds %struct.patient, %struct.patient* %110, i32 0, i32 1
  %112 = load i32, i32* %111, align 4
  %113 = load i32, i32* %11, align 4
  %114 = add nsw i32 %113, 1
  %115 = sext i32 %114 to i64
  %116 = getelementptr inbounds [100 x %struct.patient], [100 x %struct.patient]* %8, i64 0, i64 %115
  %117 = getelementptr inbounds %struct.patient, %struct.patient* %116, i32 0, i32 1
  store i32 %112, i32* %117, align 4
  %118 = load i32, i32* %12, align 4
  %119 = load i32, i32* %11, align 4
  %120 = sext i32 %119 to i64
  %121 = getelementptr inbounds [100 x %struct.patient], [100 x %struct.patient]* %8, i64 0, i64 %120
  %122 = getelementptr inbounds %struct.patient, %struct.patient* %121, i32 0, i32 1
  store i32 %118, i32* %122, align 4
  %123 = getelementptr inbounds [11 x i8], [11 x i8]* %13, i64 0, i64 0
  %124 = load i32, i32* %11, align 4
  %125 = sext i32 %124 to i64
  %126 = getelementptr inbounds [100 x %struct.patient], [100 x %struct.patient]* %8, i64 0, i64 %125
  %127 = getelementptr inbounds %struct.patient, %struct.patient* %126, i32 0, i32 0
  %128 = getelementptr inbounds [11 x i8], [11 x i8]* %127, i64 0, i64 0
  %129 = call i8* @strcpy(i8* %123, i8* %128) #3
  %130 = load i32, i32* %11, align 4
  %131 = sext i32 %130 to i64
  %132 = getelementptr inbounds [100 x %struct.patient], [100 x %struct.patient]* %8, i64 0, i64 %131
  %133 = getelementptr inbounds %struct.patient, %struct.patient* %132, i32 0, i32 0
  %134 = getelementptr inbounds [11 x i8], [11 x i8]* %133, i64 0, i64 0
  %135 = load i32, i32* %11, align 4
  %136 = add nsw i32 %135, 1
  %137 = sext i32 %136 to i64
  %138 = getelementptr inbounds [100 x %struct.patient], [100 x %struct.patient]* %8, i64 0, i64 %137
  %139 = getelementptr inbounds %struct.patient, %struct.patient* %138, i32 0, i32 0
  %140 = getelementptr inbounds [11 x i8], [11 x i8]* %139, i64 0, i64 0
  %141 = call i8* @strcpy(i8* %134, i8* %140) #3
  %142 = load i32, i32* %11, align 4
  %143 = add nsw i32 %142, 1
  %144 = sext i32 %143 to i64
  %145 = getelementptr inbounds [100 x %struct.patient], [100 x %struct.patient]* %8, i64 0, i64 %144
  %146 = getelementptr inbounds %struct.patient, %struct.patient* %145, i32 0, i32 0
  %147 = getelementptr inbounds [11 x i8], [11 x i8]* %146, i64 0, i64 0
  %148 = getelementptr inbounds [11 x i8], [11 x i8]* %13, i64 0, i64 0
  %149 = call i8* @strcpy(i8* %147, i8* %148) #3
  br label %150

150:                                              ; preds = %101, %88
  br label %151

151:                                              ; preds = %150
  %152 = load i32, i32* %11, align 4
  %153 = add nsw i32 %152, 1
  store i32 %153, i32* %11, align 4
  br label %82

154:                                              ; preds = %82
  br label %155

155:                                              ; preds = %154
  %156 = load i32, i32* %10, align 4
  %157 = add nsw i32 %156, 1
  store i32 %157, i32* %10, align 4
  br label %77

158:                                              ; preds = %77
  store i32 0, i32* %7, align 4
  br label %159

159:                                              ; preds = %170, %158
  %160 = load i32, i32* %7, align 4
  %161 = load i32, i32* %9, align 4
  %162 = icmp slt i32 %160, %161
  br i1 %162, label %163, label %173

163:                                              ; preds = %159
  %164 = load i32, i32* %7, align 4
  %165 = sext i32 %164 to i64
  %166 = getelementptr inbounds [100 x %struct.patient], [100 x %struct.patient]* %8, i64 0, i64 %165
  %167 = getelementptr inbounds %struct.patient, %struct.patient* %166, i32 0, i32 0
  %168 = getelementptr inbounds [11 x i8], [11 x i8]* %167, i64 0, i64 0
  %169 = call i32 (i8*, ...) @printf(i8* getelementptr inbounds ([4 x i8], [4 x i8]* @.str.2, i64 0, i64 0), i8* %168)
  br label %170

170:                                              ; preds = %163
  %171 = load i32, i32* %7, align 4
  %172 = add nsw i32 %171, 1
  store i32 %172, i32* %7, align 4
  br label %159

173:                                              ; preds = %159
  store i32 0, i32* %7, align 4
  br label %174

174:                                              ; preds = %193, %173
  %175 = load i32, i32* %7, align 4
  %176 = load i32, i32* %6, align 4
  %177 = icmp slt i32 %175, %176
  br i1 %177, label %178, label %196

178:                                              ; preds = %174
  %179 = load i32, i32* %7, align 4
  %180 = sext i32 %179 to i64
  %181 = getelementptr inbounds [100 x %struct.patient], [100 x %struct.patient]* @pa, i64 0, i64 %180
  %182 = getelementptr inbounds %struct.patient, %struct.patient* %181, i32 0, i32 1
  %183 = load i32, i32* %182, align 4
  %184 = icmp ne i32 %183, 0
  br i1 %184, label %185, label %192

185:                                              ; preds = %178
  %186 = load i32, i32* %7, align 4
  %187 = sext i32 %186 to i64
  %188 = getelementptr inbounds [100 x %struct.patient], [100 x %struct.patient]* @pa, i64 0, i64 %187
  %189 = getelementptr inbounds %struct.patient, %struct.patient* %188, i32 0, i32 0
  %190 = getelementptr inbounds [11 x i8], [11 x i8]* %189, i64 0, i64 0
  %191 = call i32 (i8*, ...) @printf(i8* getelementptr inbounds ([4 x i8], [4 x i8]* @.str.2, i64 0, i64 0), i8* %190)
  br label %192

192:                                              ; preds = %185, %178
  br label %193

193:                                              ; preds = %192
  %194 = load i32, i32* %7, align 4
  %195 = add nsw i32 %194, 1
  store i32 %195, i32* %7, align 4
  br label %174

196:                                              ; preds = %174
  ret i32 0
}

declare dso_local i32 @__isoc99_scanf(i8*, ...) #1

; Function Attrs: nounwind
declare dso_local i8* @strcpy(i8*, i8*) #2

declare dso_local i32 @printf(i8*, ...) #1


!llvm.module.flags = !{!0}
!llvm.ident = !{!1}

!0 = !{i32 1, !"wchar_size", i32 4}
!1 = !{!"clang version 10.0.0-4ubuntu1 "}
